target datalayout = "e-m:e-p270:32:32-p271:32:32-p272:64:64-i64:64-i128:128-f80:128-n8:16:32:64-S128"
target triple = "x86_64-pc-linux-gnu"

%struct._object = type { %union.anon, ptr }
%union.anon = type { i64 }
%struct._typeobject = type { %struct.PyVarObject, ptr, i64, i64, ptr, i64, ptr, ptr, ptr, ptr, ptr, ptr, ptr, ptr, ptr, ptr, ptr, ptr, ptr, i64, ptr, ptr, ptr, ptr, i64, ptr, ptr, ptr, ptr, ptr, ptr, ptr, ptr, ptr, i64, ptr, ptr, ptr, ptr, ptr, ptr, ptr, ptr, ptr, ptr, ptr, i32, ptr, ptr, i8, i16 }
%struct.PyVarObject = type { %struct._object, i64 }

@_Py_NoneStruct = external global %struct._object, align 8
@.str.7 = private unnamed_addr constant [17 x i8] c"PyErr_Occurred()\00", align 1
@.str.8 = private unnamed_addr constant [36 x i8] c"../cpython/Modules/_testcapi/list.c\00", align 1
@__PRETTY_FUNCTION__.list_get_size = private unnamed_addr constant [48 x i8] c"PyObject *list_get_size(PyObject *, PyObject *)\00", align 1
@.str.9 = private unnamed_addr constant [18 x i8] c"!PyErr_Occurred()\00", align 1
@.str.10 = private unnamed_addr constant [17 x i8] c"PyList_Check(op)\00", align 1
@.str.11 = private unnamed_addr constant [40 x i8] c"../cpython/Include/cpython/listobject.h\00", align 1
@__PRETTY_FUNCTION__.PyList_GET_SIZE = private unnamed_addr constant [39 x i8] c"Py_ssize_t PyList_GET_SIZE(PyObject *)\00", align 1
@PyLong_Type = external global %struct._typeobject, align 8
@.str.12 = private unnamed_addr constant [28 x i8] c"Py_TYPE(ob) != &PyLong_Type\00", align 1
@.str.13 = private unnamed_addr constant [28 x i8] c"../cpython/Include/object.h\00", align 1
@__PRETTY_FUNCTION__.Py_SIZE = private unnamed_addr constant [31 x i8] c"Py_ssize_t Py_SIZE(PyObject *)\00", align 1
@PyBool_Type = external global %struct._typeobject, align 8
@.str.14 = private unnamed_addr constant [28 x i8] c"Py_TYPE(ob) != &PyBool_Type\00", align 1

; Function Attrs: inlinehint nounwind uwtable
define internal i64 @Py_SIZE(ptr noundef %0) #3 {
  %2 = alloca ptr, align 8
  store ptr %0, ptr %2, align 8, !tbaa !3
  %3 = load ptr, ptr %2, align 8, !tbaa !3
  %4 = call ptr @_Py_TYPE(ptr noundef %3)
  %5 = icmp ne ptr %4, @PyLong_Type
  br i1 %5, label %6, label %7

6:                                                ; preds = %1
  br label %9

7:                                                ; preds = %1
  call void @__assert_fail(ptr noundef @.str.12, ptr noundef @.str.13, i32 noundef 282, ptr noundef @__PRETTY_FUNCTION__.Py_SIZE) #7
  unreachable

8:                                                ; No predecessors!
  br label %9

9:                                                ; preds = %8, %6
  %10 = load ptr, ptr %2, align 8, !tbaa !3
  %11 = call ptr @_Py_TYPE(ptr noundef %10)
  %12 = icmp ne ptr %11, @PyBool_Type
  br i1 %12, label %13, label %14

13:                                               ; preds = %9
  br label %16

14:                                               ; preds = %9
  call void @__assert_fail(ptr noundef @.str.14, ptr noundef @.str.13, i32 noundef 283, ptr noundef @__PRETTY_FUNCTION__.Py_SIZE) #7
  unreachable

15:                                               ; No predecessors!
  br label %16

16:                                               ; preds = %15, %13
  %17 = load ptr, ptr %2, align 8, !tbaa !3
  %18 = getelementptr inbounds nuw %struct.PyVarObject, ptr %17, i32 0, i32 1
  %19 = load i64, ptr %18, align 8, !tbaa !31
  ret i64 %19
}

; Function Attrs: inlinehint nounwind uwtable
define internal i32 @PyType_HasFeature(ptr noundef %0, i64 noundef %1) #3 {
  %3 = alloca ptr, align 8
  %4 = alloca i64, align 8
  %5 = alloca i64, align 8
  store ptr %0, ptr %3, align 8, !tbaa !22
  store i64 %1, ptr %4, align 8, !tbaa !8
  call void @llvm.lifetime.start.p0(i64 8, ptr %5) #6
  %6 = load ptr, ptr %3, align 8, !tbaa !22
  %7 = getelementptr inbounds nuw %struct._typeobject, ptr %6, i32 0, i32 19
  %8 = load i64, ptr %7, align 8, !tbaa !23
  store i64 %8, ptr %5, align 8, !tbaa !8
  %9 = load i64, ptr %5, align 8, !tbaa !8
  %10 = load i64, ptr %4, align 8, !tbaa !8
  %11 = and i64 %9, %10
  %12 = icmp ne i64 %11, 0
  %13 = zext i1 %12 to i32
  call void @llvm.lifetime.end.p0(i64 8, ptr %5) #6
  ret i32 %13
}

; Function Attrs: inlinehint nounwind uwtable
define internal ptr @_Py_TYPE(ptr noundef %0) #3 {
  %2 = alloca ptr, align 8
  store ptr %0, ptr %2, align 8, !tbaa !3
  %3 = load ptr, ptr %2, align 8, !tbaa !3
  %4 = getelementptr inbounds nuw %struct._object, ptr %3, i32 0, i32 1
  %5 = load ptr, ptr %4, align 8, !tbaa !30
  ret ptr %5
}

; Function Attrs: inlinehint nounwind uwtable
define internal i64 @PyList_GET_SIZE(ptr noundef %0) #3 {
  %2 = alloca ptr, align 8
  %3 = alloca ptr, align 8
  store ptr %0, ptr %2, align 8, !tbaa !3
  call void @llvm.lifetime.start.p0(i64 8, ptr %3) #6
  %4 = load ptr, ptr %2, align 8, !tbaa !3
  %5 = call ptr @_Py_TYPE(ptr noundef %4)
  %6 = call i32 @PyType_HasFeature(ptr noundef %5, i64 noundef 33554432)
  %7 = icmp ne i32 %6, 0
  br i1 %7, label %8, label %9

8:                                                ; preds = %1
  br label %11

9:                                                ; preds = %1
  call void @__assert_fail(ptr noundef @.str.10, ptr noundef @.str.11, i32 noundef 31, ptr noundef @__PRETTY_FUNCTION__.PyList_GET_SIZE) #7
  unreachable

10:                                               ; No predecessors!
  br label %11

11:                                               ; preds = %10, %8
  %12 = load ptr, ptr %2, align 8, !tbaa !3
  store ptr %12, ptr %3, align 8, !tbaa !21
  %13 = load ptr, ptr %3, align 8, !tbaa !21
  %14 = call i64 @Py_SIZE(ptr noundef %13)
  call void @llvm.lifetime.end.p0(i64 8, ptr %3) #6
  ret i64 %14
}

; Function Attrs: nounwind uwtable
define internal ptr @list_get_size(ptr noundef %0, ptr noundef %1) #0 {
  %3 = alloca ptr, align 8
  %4 = alloca ptr, align 8
  %5 = alloca ptr, align 8
  %6 = alloca i64, align 8
  %7 = alloca i32, align 4
  store ptr %0, ptr %4, align 8, !tbaa !3
  store ptr %1, ptr %5, align 8, !tbaa !3
  br label %8

8:                                                ; preds = %2
  %9 = load ptr, ptr %5, align 8, !tbaa !3
  %10 = icmp eq ptr %9, @_Py_NoneStruct
  br i1 %10, label %11, label %12

11:                                               ; preds = %8
  store ptr null, ptr %5, align 8, !tbaa !3
  br label %12

12:                                               ; preds = %11, %8
  br label %13

13:                                               ; preds = %12
  br label %14

14:                                               ; preds = %13
  call void @llvm.lifetime.start.p0(i64 8, ptr %6) #6
  %15 = load ptr, ptr %5, align 8, !tbaa !3
  %16 = call i64 @PyList_GET_SIZE(ptr noundef %15)
  store i64 %16, ptr %6, align 8, !tbaa !8
  %17 = load i64, ptr %6, align 8, !tbaa !8
  %18 = icmp eq i64 %17, -1
  br i1 %18, label %19, label %26

19:                                               ; preds = %14
  %20 = call ptr @PyErr_Occurred()
  %21 = icmp ne ptr %20, null
  br i1 %21, label %22, label %23

22:                                               ; preds = %19
  br label %25

23:                                               ; preds = %19
  call void @__assert_fail(ptr noundef @.str.7, ptr noundef @.str.8, i32 noundef 9, ptr noundef @__PRETTY_FUNCTION__.list_get_size) #7
  unreachable

24:                                               ; No predecessors!
  br label %25

25:                                               ; preds = %24, %22
  store ptr null, ptr %3, align 8
  store i32 1, ptr %7, align 4
  br label %35

26:                                               ; preds = %14
  %27 = call ptr @PyErr_Occurred()
  %28 = icmp ne ptr %27, null
  br i1 %28, label %30, label %29

29:                                               ; preds = %26
  br label %32

30:                                               ; preds = %26
  call void @__assert_fail(ptr noundef @.str.9, ptr noundef @.str.8, i32 noundef 9, ptr noundef @__PRETTY_FUNCTION__.list_get_size) #7
  unreachable

31:                                               ; No predecessors!
  br label %32

32:                                               ; preds = %31, %29
  %33 = load i64, ptr %6, align 8, !tbaa !8
  %34 = call ptr @PyLong_FromSsize_t(i64 noundef %33)
  store ptr %34, ptr %3, align 8
  store i32 1, ptr %7, align 4
  br label %35

35:                                               ; preds = %32, %25
  call void @llvm.lifetime.end.p0(i64 8, ptr %6) #6
  br label %36

36:                                               ; preds = %35
  %37 = load ptr, ptr %3, align 8
  ret ptr %37
}