; Function Attrs: nounwind uwtable
define internal ptr @list_get_size(ptr readnone captures(none) %0, ptr noundef readonly %1) #0 {
  %3 = icmp eq ptr %1, @_Py_NoneStruct
  %spec.store.select = select i1 %3, ptr null, ptr %1
  %4 = getelementptr i8, ptr %spec.store.select, i64 8
  %.val.i = load ptr, ptr %4, align 8, !tbaa !3
  %5 = getelementptr i8, ptr %.val.i, i64 168
  %.val3.i = load i64, ptr %5, align 8, !tbaa !9
  %6 = and i64 %.val3.i, 33554432
  %.not.i = icmp eq i64 %6, 0
  br i1 %.not.i, label %7, label %8

7:                                                ; preds = %2
  tail call void @__assert_fail(ptr noundef nonnull @.str.10, ptr noundef nonnull @.str.11, i32 noundef 31, ptr noundef nonnull @__PRETTY_FUNCTION__.PyList_GET_SIZE) #6
  unreachable

8:                                                ; preds = %2
  %.not.i.i = icmp eq ptr %.val.i, @PyLong_Type
  br i1 %.not.i.i, label %9, label %10

9:                                                ; preds = %8
  tail call void @__assert_fail(ptr noundef nonnull @.str.12, ptr noundef nonnull @.str.13, i32 noundef 282, ptr noundef nonnull @__PRETTY_FUNCTION__.Py_SIZE) #6
  unreachable

10:                                               ; preds = %8
  %.not3.i.i = icmp eq ptr %.val.i, @PyBool_Type
  br i1 %.not3.i.i, label %11, label %PyList_GET_SIZE.exit

11:                                               ; preds = %10
  tail call void @__assert_fail(ptr noundef nonnull @.str.14, ptr noundef nonnull @.str.13, i32 noundef 283, ptr noundef nonnull @__PRETTY_FUNCTION__.Py_SIZE) #6
  unreachable

PyList_GET_SIZE.exit:                             ; preds = %10
  %12 = getelementptr inbounds nuw i8, ptr %spec.store.select, i64 16
  %13 = load i64, ptr %12, align 8, !tbaa !20
  %14 = icmp eq i64 %13, -1
  %15 = tail call ptr @PyErr_Occurred() #5
  %.not5 = icmp eq ptr %15, null
  br i1 %14, label %16, label %18

16:                                               ; preds = %PyList_GET_SIZE.exit
  br i1 %.not5, label %17, label %22

17:                                               ; preds = %16
  tail call void @__assert_fail(ptr noundef nonnull @.str.7, ptr noundef nonnull @.str.8, i32 noundef 9, ptr noundef nonnull @__PRETTY_FUNCTION__.list_get_size) #6
  unreachable

18:                                               ; preds = %PyList_GET_SIZE.exit
  br i1 %.not5, label %20, label %19

19:                                               ; preds = %18
  tail call void @__assert_fail(ptr noundef nonnull @.str.9, ptr noundef nonnull @.str.8, i32 noundef 9, ptr noundef nonnull @__PRETTY_FUNCTION__.list_get_size) #6
  unreachable

20:                                               ; preds = %18
  %21 = tail call ptr @PyLong_FromSsize_t(i64 noundef %13) #5
  br label %22

22:                                               ; preds = %16, %20
  %.0 = phi ptr [ %21, %20 ], [ null, %16 ]
  ret ptr %.0
}